target datalayout = "e-m:e-p270:32:32-p271:32:32-p272:64:64-i64:64-i128:128-f80:128-n8:16:32:64-S128"
target triple = "x86_64-pc-linux-gnu"

%struct.cpool = type { %struct.Curl_hash, i64, i64, i64, %struct.curltime, %struct.Curl_llist, ptr, ptr, ptr, ptr, i8 }
%struct.Curl_hash = type { ptr, ptr, ptr, ptr, i64, i64 }
%struct.curltime = type { i64, i32 }
%struct.Curl_llist = type { ptr, ptr, ptr, i64 }
%struct.Curl_easy = type { i32, i64, i64, ptr, %struct.Curl_llist_node, %struct.Curl_llist_node, i32, i32, %struct.Curl_message, %struct.easy_pollset, %struct.Names, ptr, ptr, ptr, %struct.SingleRequest, %struct.UserDefined, ptr, ptr, %struct.Progress, %struct.UrlState, ptr, %struct.PureInfo, %struct.curl_tlssessioninfo }
%struct.Curl_llist_node = type { ptr, ptr, ptr, ptr }
%struct.Curl_message = type { %struct.Curl_llist_node, %struct.CURLMsg }
%struct.CURLMsg = type { i32, ptr, %union.anon }
%union.anon = type { ptr }
%struct.easy_pollset = type { [5 x i32], i32, [5 x i8] }
%struct.Names = type { ptr, i32 }
%struct.SingleRequest = type <{ i64, i64, i64, i64, %struct.curltime, i32, i32, i32, i32, i64, i32, i32, i32, i32, ptr, ptr, %struct.bufq, i64, i64, ptr, ptr, %union.anon.0, ptr, i8, i32, [3 x i8] }>
%struct.bufq = type { ptr, ptr, ptr, ptr, i64, i64, i64, i32 }
%union.anon.0 = type { ptr }
%struct.UserDefined = type <{ ptr, ptr, ptr, ptr, ptr, ptr, i16, [6 x i8], i64, i64, i64, ptr, ptr, i64, i16, i16, [4 x i8], ptr, ptr, ptr, ptr, ptr, ptr, ptr, ptr, ptr, ptr, ptr, ptr, ptr, ptr, ptr, ptr, ptr, ptr, ptr, ptr, ptr, ptr, ptr, i32, i32, i32, i32, i32, [4 x i8], i64, i64, i64, i64, i64, i64, i64, i64, ptr, ptr, %struct.curl_mimepart, ptr, ptr, i64, i8, i8, i8, [5 x i8], %struct.ssl_config_data, %struct.ssl_config_data, ptr, i16, i8, i8, [4 x i8], %struct.ssl_general_config, i32, i32, i32, [4 x i8], ptr, ptr, i8, [7 x i8], i64, i8, i8, i8, i8, i32, ptr, ptr, ptr, i8, i8, [2 x i8], i32, [63 x ptr], [8 x ptr], i32, i32, i32, [4 x i8], ptr, ptr, ptr, ptr, ptr, i8, [3 x i8], i32, i32, i32, i64, %struct.Curl_data_priority, ptr, ptr, i64, ptr, i64, ptr, ptr, ptr, i8, [3 x i8], i32, i8, i8, i64, [6 x i8] }>
%struct.curl_mimepart = type { ptr, ptr, i32, i32, ptr, ptr, ptr, ptr, ptr, ptr, ptr, ptr, ptr, ptr, ptr, i64, %struct.mime_state, ptr, %struct.mime_encoder_state, i64 }
%struct.mime_state = type { i32, ptr, i64 }
%struct.mime_encoder_state = type { i64, i64, i64, [256 x i8] }
%struct.ssl_config_data = type { %struct.ssl_primary_config, i64, ptr, ptr, ptr, ptr, ptr, ptr, ptr, i16 }
%struct.ssl_primary_config = type { ptr, ptr, ptr, ptr, ptr, ptr, ptr, ptr, ptr, ptr, ptr, ptr, i8, i32, i8, i8 }
%struct.ssl_general_config = type { i64, i32 }
%struct.Curl_data_priority = type { ptr, ptr, i32, i8 }
%struct.Progress = type { i64, %struct.pgrs_dir, %struct.pgrs_dir, i64, i64, i32, i32, i64, i64, i64, i64, i64, i64, i64, i64, i64, %struct.curltime, %struct.curltime, %struct.curltime, %struct.curltime, [6 x i64], [6 x %struct.curltime], i32, i8 }
%struct.pgrs_dir = type { i64, i64, i64, %struct.pgrs_measure }
%struct.pgrs_measure = type { %struct.curltime, i64 }
%struct.UrlState = type { %struct.curltime, i64, i64, %struct.dynbuf, ptr, i64, ptr, i32, i32, i32, ptr, i64, i32, i64, i32, ptr, %struct.digestdata, %struct.digestdata, %struct.auth, %struct.auth, %struct.Curl_async, ptr, %struct.curltime, %struct.Curl_tree, %struct.Curl_llist, [15 x %struct.time_node], ptr, ptr, i64, i64, %struct.Curl_data_priority, ptr, ptr, ptr, %struct.urlpieces, ptr, ptr, ptr, ptr, ptr, i64, %struct.dynbuf, %struct.Curl_llist, [2 x %struct.curl_header], ptr, i32, ptr, ptr, %struct.store_netrc, %struct.dynamically_allocated_data, i8, i8, i8, i8, i32 }
%struct.digestdata = type { ptr, ptr, ptr, ptr, ptr, ptr, i32, i8, i8 }
%struct.auth = type { i64, i64, i64, i8 }
%struct.Curl_async = type { ptr, ptr, ptr, ptr, i32, i32, i8 }
%struct.Curl_tree = type { ptr, ptr, ptr, ptr, %struct.curltime, ptr }
%struct.time_node = type { %struct.Curl_llist_node, %struct.curltime, i32 }
%struct.urlpieces = type { ptr, ptr, ptr, ptr, ptr, ptr, ptr, ptr }
%struct.dynbuf = type { ptr, i64, i64, i64 }
%struct.curl_header = type { ptr, ptr, i64, i64, i32, ptr }
%struct.store_netrc = type { %struct.dynbuf, ptr, i8 }
%struct.dynamically_allocated_data = type { ptr, ptr, ptr, ptr, ptr, ptr, ptr, ptr, ptr, ptr, ptr, ptr, ptr }
%struct.PureInfo = type { i32, i32, i32, i64, i64, i64, i64, i64, ptr, ptr, i64, i32, %struct.ip_quadruple, i32, ptr, i32, %struct.curl_certinfo, i32, i8 }
%struct.ip_quadruple = type { [46 x i8], [46 x i8], i32, i32 }
%struct.curl_certinfo = type { i32, ptr }
%struct.curl_tlssessioninfo = type { i32, ptr }
%struct.Curl_share = type { i32, i32, i32, ptr, ptr, ptr, %struct.cpool, %struct.Curl_hash, ptr, ptr, ptr, i64, i64 }
%struct.Curl_multi = type { i32, i32, i32, %struct.Curl_llist, %struct.Curl_llist, %struct.Curl_llist, %struct.Curl_llist, i64, ptr, ptr, ptr, ptr, %struct.Curl_hash, ptr, ptr, i64, ptr, i64, ptr, i64, %struct.Curl_hash, %struct.Curl_hash, %struct.cpool, i64, i64, i64, ptr, ptr, i64, %struct.curltime, [2 x i32], i32, i32, i8, i8 }

; Function Attrs: nounwind uwtable
define internal ptr @cpool_get_instance(ptr noundef %0) #0 {
  %2 = alloca ptr, align 8
  %3 = alloca ptr, align 8
  store ptr %0, ptr %3, align 8, !tbaa !97
  %4 = load ptr, ptr %3, align 8, !tbaa !97
  %5 = icmp ne ptr %4, null
  br i1 %5, label %6, label %47

6:                                                ; preds = %1
  %7 = load ptr, ptr %3, align 8, !tbaa !97
  %8 = getelementptr inbounds nuw %struct.Curl_easy, ptr %7, i32 0, i32 13
  %9 = load ptr, ptr %8, align 8, !tbaa !89
  %10 = icmp ne ptr %9, null
  br i1 %10, label %11, label %24

11:                                               ; preds = %6
  %12 = load ptr, ptr %3, align 8, !tbaa !97
  %13 = getelementptr inbounds nuw %struct.Curl_easy, ptr %12, i32 0, i32 13
  %14 = load ptr, ptr %13, align 8, !tbaa !89
  %15 = getelementptr inbounds nuw %struct.Curl_share, ptr %14, i32 0, i32 1
  %16 = load i32, ptr %15, align 4, !tbaa !91
  %17 = and i32 %16, 32
  %18 = icmp ne i32 %17, 0
  br i1 %18, label %19, label %24

19:                                               ; preds = %11
  %20 = load ptr, ptr %3, align 8, !tbaa !97
  %21 = getelementptr inbounds nuw %struct.Curl_easy, ptr %20, i32 0, i32 13
  %22 = load ptr, ptr %21, align 8, !tbaa !89
  %23 = getelementptr inbounds nuw %struct.Curl_share, ptr %22, i32 0, i32 6
  store ptr %23, ptr %2, align 8
  br label %48

24:                                               ; preds = %11, %6
  %25 = load ptr, ptr %3, align 8, !tbaa !97
  %26 = getelementptr inbounds nuw %struct.Curl_easy, ptr %25, i32 0, i32 12
  %27 = load ptr, ptr %26, align 8, !tbaa !103
  %28 = icmp ne ptr %27, null
  br i1 %28, label %29, label %34

29:                                               ; preds = %24
  %30 = load ptr, ptr %3, align 8, !tbaa !97
  %31 = getelementptr inbounds nuw %struct.Curl_easy, ptr %30, i32 0, i32 12
  %32 = load ptr, ptr %31, align 8, !tbaa !103
  %33 = getelementptr inbounds nuw %struct.Curl_multi, ptr %32, i32 0, i32 22
  store ptr %33, ptr %2, align 8
  br label %48

34:                                               ; preds = %24
  %35 = load ptr, ptr %3, align 8, !tbaa !97
  %36 = getelementptr inbounds nuw %struct.Curl_easy, ptr %35, i32 0, i32 11
  %37 = load ptr, ptr %36, align 8, !tbaa !25
  %38 = icmp ne ptr %37, null
  br i1 %38, label %39, label %44

39:                                               ; preds = %34
  %40 = load ptr, ptr %3, align 8, !tbaa !97
  %41 = getelementptr inbounds nuw %struct.Curl_easy, ptr %40, i32 0, i32 11
  %42 = load ptr, ptr %41, align 8, !tbaa !25
  %43 = getelementptr inbounds nuw %struct.Curl_multi, ptr %42, i32 0, i32 22
  store ptr %43, ptr %2, align 8
  br label %48

44:                                               ; preds = %34
  br label %45

45:                                               ; preds = %44
  br label %46

46:                                               ; preds = %45
  br label %47

47:                                               ; preds = %46, %1
  store ptr null, ptr %2, align 8
  br label %48

48:                                               ; preds = %47, %39, %29, %19
  %49 = load ptr, ptr %2, align 8
  ret ptr %49
}

; Function Attrs: nounwind uwtable
define dso_local void @Curl_cpool_xfer_init(ptr noundef %0) #0 {
  %2 = alloca ptr, align 8
  %3 = alloca ptr, align 8
  store ptr %0, ptr %2, align 8, !tbaa !97
  call void @llvm.lifetime.start.p0(i64 8, ptr %3) #6
  %4 = load ptr, ptr %2, align 8, !tbaa !97
  %5 = call ptr @cpool_get_instance(ptr noundef %4)
  store ptr %5, ptr %3, align 8, !tbaa !4
  br label %6

6:                                                ; preds = %1
  br label %7

7:                                                ; preds = %6
  br label %8

8:                                                ; preds = %7
  %9 = load ptr, ptr %3, align 8, !tbaa !4
  %10 = icmp ne ptr %9, null
  br i1 %10, label %11, label %131

11:                                               ; preds = %8
  br label %12

12:                                               ; preds = %11
  %13 = load ptr, ptr %3, align 8, !tbaa !4
  %14 = icmp ne ptr %13, null
  br i1 %14, label %15, label %42

15:                                               ; preds = %12
  %16 = load ptr, ptr %3, align 8, !tbaa !4
  %17 = getelementptr inbounds nuw %struct.cpool, ptr %16, i32 0, i32 8
  %18 = load ptr, ptr %17, align 8, !tbaa !88
  %19 = icmp ne ptr %18, null
  br i1 %19, label %20, label %33

20:                                               ; preds = %15
  %21 = load ptr, ptr %3, align 8, !tbaa !4
  %22 = getelementptr inbounds nuw %struct.cpool, ptr %21, i32 0, i32 8
  %23 = load ptr, ptr %22, align 8, !tbaa !88
  %24 = getelementptr inbounds nuw %struct.Curl_share, ptr %23, i32 0, i32 1
  %25 = load i32, ptr %24, align 4, !tbaa !91
  %26 = and i32 %25, 32
  %27 = icmp ne i32 %26, 0
  br i1 %27, label %28, label %33

28:                                               ; preds = %20
  %29 = load ptr, ptr %3, align 8, !tbaa !4
  %30 = getelementptr inbounds nuw %struct.cpool, ptr %29, i32 0, i32 6
  %31 = load ptr, ptr %30, align 8, !tbaa !16
  %32 = call i32 @Curl_share_lock(ptr noundef %31, i32 noundef 5, i32 noundef 2)
  br label %33

33:                                               ; preds = %28, %20, %15
  br label %34

34:                                               ; preds = %33
  br label %35

35:                                               ; preds = %34
  br label %36

36:                                               ; preds = %35
  %37 = load ptr, ptr %3, align 8, !tbaa !4
  %38 = getelementptr inbounds nuw %struct.cpool, ptr %37, i32 0, i32 10
  %39 = load i8, ptr %38, align 8
  %40 = and i8 %39, -2
  %41 = or i8 %40, 1
  store i8 %41, ptr %38, align 8
  br label %42

42:                                               ; preds = %36, %12
  br label %43

43:                                               ; preds = %42
  br label %44

44:                                               ; preds = %43
  %45 = load ptr, ptr %3, align 8, !tbaa !4
  %46 = getelementptr inbounds nuw %struct.cpool, ptr %45, i32 0, i32 3
  %47 = load i64, ptr %46, align 8, !tbaa !98
  %48 = add nsw i64 %47, 1
  store i64 %48, ptr %46, align 8, !tbaa !98
  %49 = load ptr, ptr %2, align 8, !tbaa !97
  %50 = getelementptr inbounds nuw %struct.Curl_easy, ptr %49, i32 0, i32 1
  store i64 %47, ptr %50, align 8, !tbaa !99
  %51 = load ptr, ptr %3, align 8, !tbaa !4
  %52 = getelementptr inbounds nuw %struct.cpool, ptr %51, i32 0, i32 3
  %53 = load i64, ptr %52, align 8, !tbaa !98
  %54 = icmp sle i64 %53, 0
  br i1 %54, label %55, label %58

55:                                               ; preds = %44
  %56 = load ptr, ptr %3, align 8, !tbaa !4
  %57 = getelementptr inbounds nuw %struct.cpool, ptr %56, i32 0, i32 3
  store i64 0, ptr %57, align 8, !tbaa !98
  br label %58

58:                                               ; preds = %55, %44
  %59 = load ptr, ptr %2, align 8, !tbaa !97
  %60 = getelementptr inbounds nuw %struct.Curl_easy, ptr %59, i32 0, i32 19
  %61 = getelementptr inbounds nuw %struct.UrlState, ptr %60, i32 0, i32 1
  store i64 -1, ptr %61, align 8, !tbaa !100
  %62 = load ptr, ptr %2, align 8, !tbaa !97
  %63 = getelementptr inbounds nuw %struct.Curl_easy, ptr %62, i32 0, i32 15
  %64 = getelementptr inbounds nuw %struct.UserDefined, ptr %63, i32 0, i32 40
  %65 = load i32, ptr %64, align 8, !tbaa !101
  %66 = load ptr, ptr %3, align 8, !tbaa !4
  %67 = getelementptr inbounds nuw %struct.cpool, ptr %66, i32 0, i32 6
  %68 = load ptr, ptr %67, align 8, !tbaa !16
  %69 = getelementptr inbounds nuw %struct.Curl_easy, ptr %68, i32 0, i32 15
  %70 = getelementptr inbounds nuw %struct.UserDefined, ptr %69, i32 0, i32 40
  store i32 %65, ptr %70, align 8, !tbaa !101
  %71 = load ptr, ptr %2, align 8, !tbaa !97
  %72 = getelementptr inbounds nuw %struct.Curl_easy, ptr %71, i32 0, i32 15
  %73 = getelementptr inbounds nuw %struct.UserDefined, ptr %72, i32 0, i32 43
  %74 = load i32, ptr %73, align 4, !tbaa !102
  %75 = load ptr, ptr %3, align 8, !tbaa !4
  %76 = getelementptr inbounds nuw %struct.cpool, ptr %75, i32 0, i32 6
  %77 = load ptr, ptr %76, align 8, !tbaa !16
  %78 = getelementptr inbounds nuw %struct.Curl_easy, ptr %77, i32 0, i32 15
  %79 = getelementptr inbounds nuw %struct.UserDefined, ptr %78, i32 0, i32 43
  store i32 %74, ptr %79, align 4, !tbaa !102
  %80 = load ptr, ptr %2, align 8, !tbaa !97
  %81 = getelementptr inbounds nuw %struct.Curl_easy, ptr %80, i32 0, i32 15
  %82 = getelementptr inbounds nuw %struct.UserDefined, ptr %81, i32 0, i32 124
  %83 = load i64, ptr %82, align 2
  %84 = lshr i64 %83, 30
  %85 = and i64 %84, 1
  %86 = trunc i64 %85 to i32
  %87 = load ptr, ptr %3, align 8, !tbaa !4
  %88 = getelementptr inbounds nuw %struct.cpool, ptr %87, i32 0, i32 6
  %89 = load ptr, ptr %88, align 8, !tbaa !16
  %90 = getelementptr inbounds nuw %struct.Curl_easy, ptr %89, i32 0, i32 15
  %91 = getelementptr inbounds nuw %struct.UserDefined, ptr %90, i32 0, i32 124
  %92 = zext i32 %86 to i64
  %93 = load i64, ptr %91, align 2
  %94 = and i64 %92, 1
  %95 = shl i64 %94, 30
  %96 = and i64 %93, -1073741825
  %97 = or i64 %96, %95
  store i64 %97, ptr %91, align 2
  br label %98

98:                                               ; preds = %58
  %99 = load ptr, ptr %3, align 8, !tbaa !4
  %100 = icmp ne ptr %99, null
  br i1 %100, label %101, label %128

101:                                              ; preds = %98
  br label %102

102:                                              ; preds = %101
  br label %103

103:                                              ; preds = %102
  br label %104

104:                                              ; preds = %103
  %105 = load ptr, ptr %3, align 8, !tbaa !4
  %106 = getelementptr inbounds nuw %struct.cpool, ptr %105, i32 0, i32 10
  %107 = load i8, ptr %106, align 8
  %108 = and i8 %107, -2
  %109 = or i8 %108, 0
  store i8 %109, ptr %106, align 8
  %110 = load ptr, ptr %3, align 8, !tbaa !4
  %111 = getelementptr inbounds nuw %struct.cpool, ptr %110, i32 0, i32 8
  %112 = load ptr, ptr %111, align 8, !tbaa !88
  %113 = icmp ne ptr %112, null
  br i1 %113, label %114, label %127

114:                                              ; preds = %104
  %115 = load ptr, ptr %3, align 8, !tbaa !4
  %116 = getelementptr inbounds nuw %struct.cpool, ptr %115, i32 0, i32 8
  %117 = load ptr, ptr %116, align 8, !tbaa !88
  %118 = getelementptr inbounds nuw %struct.Curl_share, ptr %117, i32 0, i32 1
  %119 = load i32, ptr %118, align 4, !tbaa !91
  %120 = and i32 %119, 32
  %121 = icmp ne i32 %120, 0
  br i1 %121, label %122, label %127

122:                                              ; preds = %114
  %123 = load ptr, ptr %3, align 8, !tbaa !4
  %124 = getelementptr inbounds nuw %struct.cpool, ptr %123, i32 0, i32 6
  %125 = load ptr, ptr %124, align 8, !tbaa !16
  %126 = call i32 @Curl_share_unlock(ptr noundef %125, i32 noundef 5)
  br label %127

127:                                              ; preds = %122, %114, %104
  br label %128

128:                                              ; preds = %127, %98
  br label %129

129:                                              ; preds = %128
  br label %130

130:                                              ; preds = %129
  br label %137

131:                                              ; preds = %8
  %132 = load ptr, ptr %2, align 8, !tbaa !97
  %133 = getelementptr inbounds nuw %struct.Curl_easy, ptr %132, i32 0, i32 1
  store i64 0, ptr %133, align 8, !tbaa !99
  %134 = load ptr, ptr %2, align 8, !tbaa !97
  %135 = getelementptr inbounds nuw %struct.Curl_easy, ptr %134, i32 0, i32 19
  %136 = getelementptr inbounds nuw %struct.UrlState, ptr %135, i32 0, i32 1
  store i64 -1, ptr %136, align 8, !tbaa !100
  br label %137

137:                                              ; preds = %131, %130
  call void @llvm.lifetime.end.p0(i64 8, ptr %3) #6
  ret void
}