; Function Attrs: nounwind uwtable
define dso_local void @Curl_cpool_xfer_init(ptr noundef %0) local_unnamed_addr #0 {
  %.not.i = icmp eq ptr %0, null
  br i1 %.not.i, label %cpool_get_instance.exit, label %2

2:                                                ; preds = %1
  %3 = getelementptr inbounds nuw i8, ptr %0, i64 224
  %4 = load ptr, ptr %3, align 8, !tbaa !83
  %.not13.i = icmp eq ptr %4, null
  br i1 %.not13.i, label %11, label %5

5:                                                ; preds = %2
  %6 = getelementptr inbounds nuw i8, ptr %4, i64 4
  %7 = load i32, ptr %6, align 4, !tbaa !90
  %8 = and i32 %7, 32
  %.not14.i = icmp eq i32 %8, 0
  br i1 %.not14.i, label %11, label %9

9:                                                ; preds = %5
  %10 = getelementptr inbounds nuw i8, ptr %4, i64 40
  br label %20

11:                                               ; preds = %5, %2
  %12 = getelementptr inbounds nuw i8, ptr %0, i64 216
  %13 = load ptr, ptr %12, align 8, !tbaa !122
  %.not15.i = icmp eq ptr %13, null
  br i1 %.not15.i, label %16, label %14

14:                                               ; preds = %11
  %15 = getelementptr inbounds nuw i8, ptr %13, i64 384
  br label %20

16:                                               ; preds = %11
  %17 = getelementptr inbounds nuw i8, ptr %0, i64 208
  %18 = load ptr, ptr %17, align 8, !tbaa !21
  %.not16.i = icmp eq ptr %18, null
  %19 = getelementptr inbounds nuw i8, ptr %18, i64 384
  br i1 %.not16.i, label %cpool_get_instance.exit, label %20

20:                                               ; preds = %9, %14, %16
  %.0.i.ph = phi ptr [ %19, %16 ], [ %15, %14 ], [ %10, %9 ]
  %21 = getelementptr inbounds nuw i8, ptr %.0.i.ph, i64 136
  %22 = load ptr, ptr %21, align 8, !tbaa !82
  %.not27 = icmp eq ptr %22, null
  br i1 %.not27, label %31, label %23

23:                                               ; preds = %20
  %24 = getelementptr inbounds nuw i8, ptr %22, i64 4
  %25 = load i32, ptr %24, align 4, !tbaa !90
  %26 = and i32 %25, 32
  %.not28 = icmp eq i32 %26, 0
  br i1 %.not28, label %31, label %27

27:                                               ; preds = %23
  %28 = getelementptr inbounds nuw i8, ptr %.0.i.ph, i64 120
  %29 = load ptr, ptr %28, align 8, !tbaa !4
  %30 = tail call i32 @Curl_share_lock(ptr noundef %29, i32 noundef 5, i32 noundef 2) #7
  br label %31

31:                                               ; preds = %20, %23, %27
  %32 = getelementptr inbounds nuw i8, ptr %.0.i.ph, i64 152
  %33 = load i8, ptr %32, align 8
  %34 = or i8 %33, 1
  store i8 %34, ptr %32, align 8
  %35 = getelementptr inbounds nuw i8, ptr %.0.i.ph, i64 64
  %36 = load i64, ptr %35, align 8, !tbaa !123
  %37 = add nsw i64 %36, 1
  store i64 %37, ptr %35, align 8, !tbaa !123
  %38 = getelementptr inbounds nuw i8, ptr %0, i64 8
  store i64 %36, ptr %38, align 8, !tbaa !124
  %39 = icmp slt i64 %36, 0
  br i1 %39, label %40, label %41

40:                                               ; preds = %31
  store i64 0, ptr %35, align 8, !tbaa !123
  br label %41

41:                                               ; preds = %40, %31
  %42 = getelementptr inbounds nuw i8, ptr %0, i64 3024
  store i64 -1, ptr %42, align 8, !tbaa !125
  %43 = getelementptr inbounds nuw i8, ptr %0, i64 752
  %44 = load i32, ptr %43, align 8, !tbaa !126
  %45 = getelementptr inbounds nuw i8, ptr %.0.i.ph, i64 120
  %46 = load ptr, ptr %45, align 8, !tbaa !4
  %47 = getelementptr inbounds nuw i8, ptr %46, i64 752
  store i32 %44, ptr %47, align 8, !tbaa !126
  %48 = getelementptr inbounds nuw i8, ptr %0, i64 764
  %49 = load i32, ptr %48, align 4, !tbaa !127
  %50 = getelementptr inbounds nuw i8, ptr %46, i64 764
  store i32 %49, ptr %50, align 4, !tbaa !127
  %51 = getelementptr inbounds nuw i8, ptr %0, i64 2562
  %52 = load i64, ptr %51, align 2
  %53 = and i64 %52, 1073741824
  %54 = getelementptr inbounds nuw i8, ptr %46, i64 2562
  %55 = load i64, ptr %54, align 2
  %56 = and i64 %55, -1073741825
  %57 = or disjoint i64 %56, %53
  store i64 %57, ptr %54, align 2
  %58 = load i8, ptr %32, align 8
  %59 = and i8 %58, -2
  store i8 %59, ptr %32, align 8
  %60 = load ptr, ptr %21, align 8, !tbaa !82
  %.not29 = icmp eq ptr %60, null
  br i1 %.not29, label %70, label %61

61:                                               ; preds = %41
  %62 = getelementptr inbounds nuw i8, ptr %60, i64 4
  %63 = load i32, ptr %62, align 4, !tbaa !90
  %64 = and i32 %63, 32
  %.not30 = icmp eq i32 %64, 0
  br i1 %.not30, label %70, label %65

65:                                               ; preds = %61
  %66 = load ptr, ptr %45, align 8, !tbaa !4
  %67 = tail call i32 @Curl_share_unlock(ptr noundef %66, i32 noundef 5) #7
  br label %70

cpool_get_instance.exit:                          ; preds = %16, %1
  %68 = getelementptr inbounds nuw i8, ptr %0, i64 8
  store i64 0, ptr %68, align 8, !tbaa !124
  %69 = getelementptr inbounds nuw i8, ptr %0, i64 3024
  store i64 -1, ptr %69, align 8, !tbaa !125
  br label %70

70:                                               ; preds = %65, %61, %41, %cpool_get_instance.exit
  ret void
}